; Function Attrs: mustprogress nounwind willreturn memory(argmem: readwrite, inaccessiblemem: readwrite) uwtable
define void @_Z9save_freePKcS0_iPv(ptr nocapture noundef readnone %0, ptr nocapture noundef readnone %1, i32 noundef %2, ptr noundef %3) local_unnamed_addr #10 {
  %.not = icmp eq ptr %3, null
  br i1 %.not, label %6, label %5

5:                                                ; preds = %4
  tail call void @free(ptr noundef nonnull %3) #18
  br label %6

6:                                                ; preds = %5, %4
  ret void
}